; Function Attrs: nofree norecurse nosync nounwind memory(read, argmem: readwrite, inaccessiblemem: none) uwtable
define internal void @SimpleVFilter16_C(ptr noundef captures(none) %0, i32 noundef %1, i32 noundef %2) #5 {
  %4 = shl nsw i32 %2, 1
  %5 = or disjoint i32 %4, 1
  %6 = mul nsw i32 %1, -2
  %7 = sext i32 %6 to i64
  %8 = sub nsw i32 0, %1
  %9 = sext i32 %8 to i64
  %10 = sext i32 %1 to i64
  %11 = load ptr, ptr @VP8kabs0, align 8, !tbaa !18
  %12 = load ptr, ptr @VP8ksclip1, align 8
  %13 = load ptr, ptr @VP8ksclip2, align 8
  %14 = load ptr, ptr @VP8kclip1, align 8
  br label %15

15:                                               ; preds = %3, %67
  %indvars.iv = phi i64 [ 0, %3 ], [ %indvars.iv.next, %67 ]
  %16 = getelementptr inbounds nuw i8, ptr %0, i64 %indvars.iv
  %17 = getelementptr inbounds i8, ptr %16, i64 %7
  %18 = load i8, ptr %17, align 1, !tbaa !14
  %19 = zext i8 %18 to i64
  %20 = getelementptr inbounds i8, ptr %16, i64 %9
  %21 = load i8, ptr %20, align 1, !tbaa !14
  %22 = zext i8 %21 to i64
  %23 = load i8, ptr %16, align 1, !tbaa !14
  %24 = zext i8 %23 to i64
  %25 = getelementptr inbounds i8, ptr %16, i64 %10
  %26 = load i8, ptr %25, align 1, !tbaa !14
  %27 = zext i8 %26 to i64
  %28 = sub nsw i64 %22, %24
  %29 = getelementptr inbounds i8, ptr %11, i64 %28
  %30 = load i8, ptr %29, align 1, !tbaa !14
  %31 = zext i8 %30 to i32
  %32 = shl nuw nsw i32 %31, 2
  %33 = sub nsw i64 %19, %27
  %34 = getelementptr inbounds i8, ptr %11, i64 %33
  %35 = load i8, ptr %34, align 1, !tbaa !14
  %36 = zext i8 %35 to i32
  %37 = add nuw nsw i32 %32, %36
  %.not9 = icmp sgt i32 %37, %5
  br i1 %.not9, label %67, label %38

38:                                               ; preds = %15
  %39 = zext i8 %21 to i32
  %40 = zext i8 %23 to i32
  %41 = sub nsw i32 %40, %39
  %42 = mul nsw i32 %41, 3
  %43 = getelementptr inbounds i8, ptr %12, i64 %33
  %44 = load i8, ptr %43, align 1, !tbaa !14
  %45 = sext i8 %44 to i32
  %46 = add nsw i32 %42, %45
  %47 = add nsw i32 %46, 4
  %48 = ashr i32 %47, 3
  %49 = sext i32 %48 to i64
  %50 = getelementptr inbounds i8, ptr %13, i64 %49
  %51 = load i8, ptr %50, align 1, !tbaa !14
  %52 = sext i8 %51 to i32
  %53 = add nsw i32 %46, 3
  %54 = ashr i32 %53, 3
  %55 = sext i32 %54 to i64
  %56 = getelementptr inbounds i8, ptr %13, i64 %55
  %57 = load i8, ptr %56, align 1, !tbaa !14
  %58 = sext i8 %57 to i32
  %59 = add nsw i32 %58, %39
  %60 = sext i32 %59 to i64
  %61 = getelementptr inbounds i8, ptr %14, i64 %60
  %62 = load i8, ptr %61, align 1, !tbaa !14
  store i8 %62, ptr %20, align 1, !tbaa !14
  %63 = sub nsw i32 %40, %52
  %64 = sext i32 %63 to i64
  %65 = getelementptr inbounds i8, ptr %14, i64 %64
  %66 = load i8, ptr %65, align 1, !tbaa !14
  store i8 %66, ptr %16, align 1, !tbaa !14
  br label %67

67:                                               ; preds = %15, %38
  %indvars.iv.next = add nuw nsw i64 %indvars.iv, 1
  %exitcond.not = icmp eq i64 %indvars.iv.next, 16
  br i1 %exitcond.not, label %68, label %15, !llvm.loop !20

68:                                               ; preds = %67
  ret void
}